target datalayout = "e-m:e-p270:32:32-p271:32:32-p272:64:64-i64:64-i128:128-f80:128-n8:16:32:64-S128"
target triple = "x86_64-pc-linux-gnu"

%struct.AVCodecContext = type { ptr, i32, i32, ptr, i32, i32, ptr, ptr, ptr, i64, i32, i32, ptr, i32, %struct.AVRational, %struct.AVRational, %struct.AVRational, i32, i32, i32, i32, i32, %struct.AVRational, i32, i32, i32, i32, i32, i32, i32, i32, i32, i32, i32, ptr, ptr, i32, float, float, float, float, float, float, float, float, float, i32, i32, i32, i32, i32, i32, i32, i32, i32, i32, i32, i32, ptr, ptr, ptr, i32, i32, i32, i32, i32, i32, i32, i32, i32, i32, %struct.AVChannelLayout, i32, i32, i32, i32, i32, i32, i32, i32, ptr, i32, i32, i32, float, float, i32, i32, i32, i32, i32, ptr, i64, i64, float, float, i32, i32, ptr, ptr, i32, i32, i32, i32, i32, ptr, ptr, ptr, ptr, i32, i32, [8 x i64], i32, i32, i32, i32, i32, i32, i32, ptr, ptr, i32, i32, i32, i32, i32, i32, i32, i32, i32, i32, ptr, ptr, i32, i32, ptr, ptr, ptr, ptr, i32, i32, i64, i32, i32, i64, ptr, i64, ptr, i32, ptr, i32 }
%struct.AVRational = type { i32, i32 }
%struct.AVChannelLayout = type { i32, i32, %union.anon.0, ptr }
%union.anon.0 = type { i64 }
%struct.LeadContext = type { ptr, i32, %struct.BlockDSPContext, %struct.IDCTDSPContext, [64 x i8] }
%struct.BlockDSPContext = type { ptr, ptr, [2 x ptr] }
%struct.IDCTDSPContext = type { ptr, ptr, ptr, ptr, ptr, ptr, [64 x i8], i32, i32 }

@lead_decode_init.init_static_once = internal global i32 0, align 4
@ff_zigzag_direct = external constant [64 x i8], align 16

; Function Attrs: cold nounwind optsize uwtable
define internal i32 @lead_decode_init(ptr noundef %0) #0 {
  %2 = alloca i32, align 4
  %3 = alloca ptr, align 8
  %4 = alloca ptr, align 8
  %5 = alloca i32, align 4
  store ptr %0, ptr %3, align 8, !tbaa !4
  call void @llvm.lifetime.start.p0(i64 8, ptr %4) #9
  %6 = load ptr, ptr %3, align 8, !tbaa !4
  %7 = getelementptr inbounds nuw %struct.AVCodecContext, ptr %6, i32 0, i32 6
  %8 = load ptr, ptr %7, align 8, !tbaa !9
  store ptr %8, ptr %4, align 8, !tbaa !29
  %9 = load ptr, ptr %3, align 8, !tbaa !4
  %10 = getelementptr inbounds nuw %struct.AVCodecContext, ptr %9, i32 0, i32 13
  %11 = load i32, ptr %10, align 8, !tbaa !31
  %12 = icmp slt i32 %11, 20
  br i1 %12, label %13, label %14

13:                                               ; preds = %1
  store i32 -1094995529, ptr %2, align 4
  store i32 1, ptr %5, align 4
  br label %28

14:                                               ; preds = %1
  %15 = load ptr, ptr %4, align 8, !tbaa !29
  %16 = getelementptr inbounds nuw %struct.LeadContext, ptr %15, i32 0, i32 2
  call void @ff_blockdsp_init(ptr noundef %16)
  %17 = load ptr, ptr %4, align 8, !tbaa !29
  %18 = getelementptr inbounds nuw %struct.LeadContext, ptr %17, i32 0, i32 3
  %19 = load ptr, ptr %3, align 8, !tbaa !4
  call void @ff_idctdsp_init(ptr noundef %18, ptr noundef %19)
  %20 = load ptr, ptr %4, align 8, !tbaa !29
  %21 = getelementptr inbounds nuw %struct.LeadContext, ptr %20, i32 0, i32 4
  %22 = getelementptr inbounds [64 x i8], ptr %21, i64 0, i64 0
  %23 = load ptr, ptr %4, align 8, !tbaa !29
  %24 = getelementptr inbounds nuw %struct.LeadContext, ptr %23, i32 0, i32 3
  %25 = getelementptr inbounds nuw %struct.IDCTDSPContext, ptr %24, i32 0, i32 6
  %26 = getelementptr inbounds [64 x i8], ptr %25, i64 0, i64 0
  call void @ff_permute_scantable(ptr noundef %22, ptr noundef @ff_zigzag_direct, ptr noundef %26)
  %27 = call i32 @pthread_once(ptr noundef @lead_decode_init.init_static_once, ptr noundef @lead_init_static_data)
  store i32 0, ptr %2, align 4
  store i32 1, ptr %5, align 4
  br label %28

28:                                               ; preds = %14, %13
  call void @llvm.lifetime.end.p0(i64 8, ptr %4) #9
  %29 = load i32, ptr %2, align 4
  ret i32 %29
}