; Function Attrs: cold nounwind optsize uwtable
define internal range(i32 -1094995529, 1) i32 @lead_decode_init(ptr noundef %0) #0 {
  %2 = getelementptr inbounds nuw i8, ptr %0, i64 80
  %3 = load i32, ptr %2, align 8, !tbaa !4
  %4 = icmp slt i32 %3, 20
  br i1 %4, label %13, label %5

5:                                                ; preds = %1
  %6 = getelementptr inbounds nuw i8, ptr %0, i64 32
  %7 = load ptr, ptr %6, align 8, !tbaa !27
  %8 = getelementptr inbounds nuw i8, ptr %7, i64 16
  tail call void @ff_blockdsp_init(ptr noundef nonnull %8) #6
  %9 = getelementptr inbounds nuw i8, ptr %7, i64 48
  tail call void @ff_idctdsp_init(ptr noundef nonnull %9, ptr noundef nonnull %0) #6
  %10 = getelementptr inbounds nuw i8, ptr %7, i64 168
  %11 = getelementptr inbounds nuw i8, ptr %7, i64 96
  tail call void @ff_permute_scantable(ptr noundef nonnull %10, ptr noundef nonnull @ff_zigzag_direct, ptr noundef nonnull %11) #6
  %12 = tail call i32 @pthread_once(ptr noundef nonnull @lead_decode_init.init_static_once, ptr noundef nonnull @lead_init_static_data) #6
  br label %13

13:                                               ; preds = %1, %5
  %.0 = phi i32 [ 0, %5 ], [ -1094995529, %1 ]
  ret i32 %.0
}